; Function Attrs: mustprogress nounwind uwtable
define hidden void @_ZNK6Symbol11print_valueEv(ptr noundef nonnull align 4 dereferenceable(8) %0) local_unnamed_addr #1 align 2 {
  %2 = load ptr, ptr @tty, align 8
  tail call void @_ZN12outputStream9print_rawEPKcm(ptr noundef nonnull align 8 dereferenceable(56) %2, ptr noundef nonnull @.str.11, i64 noundef 1) #17
  %3 = getelementptr inbounds i8, ptr %0, i64 6
  %4 = getelementptr inbounds i8, ptr %0, i64 4
  %5 = load i16, ptr %4, align 4
  %6 = zext i16 %5 to i64
  tail call void @_ZN12outputStream9print_rawEPKcm(ptr noundef nonnull align 8 dereferenceable(56) %2, ptr noundef nonnull %3, i64 noundef %6) #17
  tail call void @_ZN12outputStream9print_rawEPKcm(ptr noundef nonnull align 8 dereferenceable(56) %2, ptr noundef nonnull @.str.11, i64 noundef 1) #17
  ret void
}